	.file	"examples.i"
	.text
	.globl	sum_list
	.type	sum_list, @function
sum_list:
.LFB0:
	.cfi_startproc
	pushl	%ebp
	.cfi_def_cfa_offset 8
	.cfi_offset 5, -8
	movl	%esp, %ebp
	.cfi_def_cfa_register 5
	subl	$16, %esp
	movl	$0, -4(%ebp)
	jmp	.L2
.L3:
	movl	8(%ebp), %eax
	movl	(%eax), %eax
	addl	%eax, -4(%ebp)
	movl	8(%ebp), %eax
	movl	4(%eax), %eax
	movl	%eax, 8(%ebp)
.L2:
	cmpl	$0, 8(%ebp)
	jne	.L3
	movl	-4(%ebp), %eax
	leave
	.cfi_restore 5
	.cfi_def_cfa 4, 4
	ret
	.cfi_endproc
.LFE0:
	.size	sum_list, .-sum_list
	.globl	rsum_list
	.type	rsum_list, @function
rsum_list:
.LFB1:
	.cfi_startproc
	pushl	%ebp
	.cfi_def_cfa_offset 8
	.cfi_offset 5, -8
	movl	%esp, %ebp
	.cfi_def_cfa_register 5
	subl	$24, %esp
	cmpl	$0, 8(%ebp)
	jne	.L6
	movl	$0, %eax
	jmp	.L7
.L6:
	movl	8(%ebp), %eax
	movl	(%eax), %eax
	movl	%eax, -12(%ebp)
	movl	8(%ebp), %eax
	movl	4(%eax), %eax
	subl	$12, %esp
	pushl	%eax
	call	rsum_list
	addl	$16, %esp
	movl	%eax, -16(%ebp)
	movl	-12(%ebp), %edx
	movl	-16(%ebp), %eax
	addl	%edx, %eax
.L7:
	leave
	.cfi_restore 5
	.cfi_def_cfa 4, 4
	ret
	.cfi_endproc
.LFE1:
	.size	rsum_list, .-rsum_list
	.globl	copy_block
	.type	copy_block, @function
copy_block:
.LFB2:
	.cfi_startproc
	pushl	%ebp
	.cfi_def_cfa_offset 8
	.cfi_offset 5, -8
	movl	%esp, %ebp
	.cfi_def_cfa_register 5
	subl	$16, %esp
	movl	$0, -4(%ebp)
	jmp	.L9
.L10:
	movl	8(%ebp), %eax
	leal	4(%eax), %edx
	movl	%edx, 8(%ebp)
	movl	(%eax), %eax
	movl	%eax, -8(%ebp)
	movl	12(%ebp), %eax
	leal	4(%eax), %edx
	movl	%edx, 12(%ebp)
	movl	-8(%ebp), %edx
	movl	%edx, (%eax)
	movl	-8(%ebp), %eax
	xorl	%eax, -4(%ebp)
	subl	$1, 16(%ebp)
.L9:
	cmpl	$0, 16(%ebp)
	jg	.L10
	movl	-4(%ebp), %eax
	leave
	.cfi_restore 5
	.cfi_def_cfa 4, 4
	ret
	.cfi_endproc
.LFE2:
	.size	copy_block, .-copy_block
	.ident	"GCC: (Ubuntu 4.9.2-0ubuntu1~14.04) 4.9.2"
	.section	.note.GNU-stack,"",@progbits
